Certificate:
    Data:
        Version: 3 (0x2)
        Serial Number: 4096 (0x1000)
        Signature Algorithm: sha256WithRSAEncryption
        Issuer: C=BD, ST=sylhet, L=sylhet, O=company, OU=company, CN=test.com/emailAddress=test@gmail.com
        Validity
            Not Before: Jul  7 16:40:41 2024 GMT
            Not After : Jul  7 16:40:41 2025 GMT
        Subject: C=BD, ST=sylhet, O=company, OU=company, CN=test.com/emailAddress=test@gmail.com
        Subject Public Key Info:
            Public Key Algorithm: rsaEncryption
                Public-Key: (2048 bit)
                Modulus:
                    00:a7:b2:25:82:db:ea:ed:a0:90:3e:ce:53:06:fa:
                    97:d7:71:4c:a7:4d:7b:d3:a8:76:49:3b:8c:eb:c4:
                    75:ba:8f:55:85:98:d8:83:29:8d:a6:06:07:35:50:
                    dd:13:d6:b7:0b:f9:7c:1c:66:f8:06:05:34:09:5d:
                    98:db:1a:33:d3:41:85:92:41:b7:37:72:e3:3f:96:
                    98:69:7a:64:1a:10:a6:79:e9:b2:9c:e3:a2:78:89:
                    c6:0b:e8:13:a2:83:27:ed:91:19:ab:50:e1:e8:e4:
                    23:e7:ab:c3:9d:07:57:47:32:25:96:8b:45:34:21:
                    72:85:dd:6e:d5:91:7b:e9:22:00:d4:e4:d1:4b:02:
                    67:67:76:48:4d:5f:4c:58:26:be:12:3e:1f:05:62:
                    80:2e:f5:17:da:5e:9d:4f:45:4d:7e:88:c0:7d:f3:
                    9e:21:14:19:e6:86:2a:a5:23:17:1c:ed:70:05:8e:
                    39:2b:c8:fd:f6:b0:8b:d7:5c:7b:dd:63:99:39:7d:
                    6b:2a:ec:5e:a1:f5:f6:ed:78:09:59:9b:cd:f3:2c:
                    5b:79:7f:fd:d2:ea:d0:cb:f4:c4:ff:bc:c0:2d:67:
                    40:50:1f:2e:71:7b:e8:d6:35:c5:f0:9c:29:fa:22:
                    5d:8f:b2:8b:13:d5:e4:76:85:5d:6f:f0:9d:75:20:
                    f2:67
                Exponent: 65537 (0x10001)
        X509v3 extensions:
            X509v3 Basic Constraints: 
                CA:FALSE
            X509v3 Subject Key Identifier: 
                A1:E4:16:1C:AB:5D:7A:B8:1C:C2:43:69:56:FF:4D:CA:E4:C7:5B:09
            X509v3 Authority Key Identifier: 
                F3:8E:31:4A:46:9C:87:2B:F5:BB:FC:CC:3F:5A:6C:A1:6E:12:66:F1
    Signature Algorithm: sha256WithRSAEncryption
    Signature Value:
        e3:70:bb:47:0e:37:3c:d0:76:20:35:2b:55:81:d4:90:ae:ba:
        e9:dd:8b:b5:a4:9f:7b:2f:a4:ab:6f:61:5d:72:d8:e7:9f:e1:
        6e:11:21:fb:c2:b0:0c:24:87:2b:6b:9e:18:12:63:87:9d:5b:
        0c:2b:0c:90:5e:02:24:65:0f:d0:73:ed:bb:8b:09:2f:e1:c5:
        b7:5b:30:f1:e9:59:29:68:ce:f3:ab:ec:64:05:af:2f:bf:5b:
        db:5b:dd:cc:af:22:69:ee:d2:ec:13:30:5d:08:c3:0c:30:6c:
        79:52:6b:fd:16:a8:12:3c:12:2e:a7:aa:33:a5:4d:fd:53:0f:
        ce:2e:0a:38:52:18:17:36:ae:f4:49:16:d0:cd:d9:28:34:ee:
        94:73:6e:2b:66:5e:83:07:5f:4d:ac:0e:e2:5a:ed:e9:7c:27:
        72:07:0e:7f:f7:14:45:b5:52:f7:60:7a:be:8a:96:35:c4:fa:
        e9:a9:dd:a0:c9:f9:df:e3:63:45:22:bb:c5:b8:f5:9b:e1:d9:
        3c:6f:ff:f6:29:e1:3b:6f:a5:7a:ee:ea:d3:68:69:7d:1f:8d:
        b3:de:79:65:33:f2:f4:d9:86:03:02:05:2f:ec:c4:17:7b:16:
        18:e8:61:2e:bf:44:b5:17:d1:73:e5:ab:d6:c8:22:a5:36:2b:
        5d:d5:be:f9
-----BEGIN CERTIFICATE-----
MIIDwzCCAqugAwIBAgICEAAwDQYJKoZIhvcNAQELBQAwgYUxCzAJBgNVBAYTAkJE
MQ8wDQYDVQQIDAZzeWxoZXQxDzANBgNVBAcMBnN5bGhldDEQMA4GA1UECgwHY29t
cGFueTEQMA4GA1UECwwHY29tcGFueTERMA8GA1UEAwwIdGVzdC5jb20xHTAbBgkq
hkiG9w0BCQEWDnRlc3RAZ21haWwuY29tMB4XDTI0MDcwNzE2NDA0MVoXDTI1MDcw
NzE2NDA0MVowdDELMAkGA1UEBhMCQkQxDzANBgNVBAgMBnN5bGhldDEQMA4GA1UE
CgwHY29tcGFueTEQMA4GA1UECwwHY29tcGFueTERMA8GA1UEAwwIdGVzdC5jb20x
HTAbBgkqhkiG9w0BCQEWDnRlc3RAZ21haWwuY29tMIIBIjANBgkqhkiG9w0BAQEF
AAOCAQ8AMIIBCgKCAQEAp7Ilgtvq7aCQPs5TBvqX13FMp01706h2STuM68R1uo9V
hZjYgymNpgYHNVDdE9a3C/l8HGb4BgU0CV2Y2xoz00GFkkG3N3LjP5aYaXpkGhCm
eemynOOieInGC+gTooMn7ZEZq1Dh6OQj56vDnQdXRzIllotFNCFyhd1u1ZF76SIA
1OTRSwJnZ3ZITV9MWCa+Ej4fBWKALvUX2l6dT0VNfojAffOeIRQZ5oYqpSMXHO1w
BY45K8j99rCL11x73WOZOX1rKuxeofX27XgJWZvN8yxbeX/90urQy/TE/7zALWdA
UB8ucXvo1jXF8Jwp+iJdj7KLE9XkdoVdb/CddSDyZwIDAQABo00wSzAJBgNVHRME
AjAAMB0GA1UdDgQWBBSh5BYcq116uBzCQ2lW/03K5MdbCTAfBgNVHSMEGDAWgBTz
jjFKRpyHK/W7/Mw/WmyhbhJm8TANBgkqhkiG9w0BAQsFAAOCAQEA43C7Rw43PNB2
IDUrVYHUkK666d2LtaSfey+kq29hXXLY55/hbhEh+8KwDCSHK2ueGBJjh51bDCsM
kF4CJGUP0HPtu4sJL+HFt1sw8elZKWjO86vsZAWvL79b21vdzK8iae7S7BMwXQjD
DDBseVJr/RaoEjwSLqeqM6VN/VMPzi4KOFIYFzau9EkW0M3ZKDTulHNuK2Zegwdf
TawO4lrt6XwncgcOf/cURbVS92B6voqWNcT66andoMn53+NjRSK7xbj1m+HZPG//
9inhO2+leu7q02hpfR+Ns955ZTPy9NmGAwIFL+zEF3sWGOhhLr9EtRfRc+Wr1sgi
pTYrXdW++Q==
-----END CERTIFICATE-----
